target datalayout = "e-m:e-p270:32:32-p271:32:32-p272:64:64-i64:64-i128:128-f80:128-n8:16:32:64-S128"
target triple = "x86_64-pc-linux-gnu"

@_ZN4absl17LeakCheckDisablerC1Ev = dso_local unnamed_addr alias void (ptr), ptr @_ZN4absl17LeakCheckDisablerC2Ev
@_ZN4absl17LeakCheckDisablerD1Ev = dso_local unnamed_addr alias void (ptr), ptr @_ZN4absl17LeakCheckDisablerD2Ev

; Function Attrs: mustprogress nounwind uwtable
define dso_local noundef zeroext i1 @_ZN4absl17HaveLeakSanitizerEv() #0 {
  ret i1 false
}

; Function Attrs: mustprogress nounwind uwtable
define dso_local noundef zeroext i1 @_ZN4absl19LeakCheckerIsActiveEv() #0 {
  ret i1 false
}

; Function Attrs: mustprogress nounwind uwtable
define dso_local void @_ZN4absl12DoIgnoreLeakEPKv(ptr noundef %0) #0 {
  %2 = alloca ptr, align 8
  store ptr %0, ptr %2, align 8, !tbaa !4
  ret void
}

; Function Attrs: mustprogress nounwind uwtable
define dso_local void @_ZN4absl20RegisterLivePointersEPKvm(ptr noundef %0, i64 noundef %1) #0 {
  %3 = alloca ptr, align 8
  %4 = alloca i64, align 8
  store ptr %0, ptr %3, align 8, !tbaa !4
  store i64 %1, ptr %4, align 8, !tbaa !8
  ret void
}

; Function Attrs: mustprogress nounwind uwtable
define dso_local void @_ZN4absl22UnRegisterLivePointersEPKvm(ptr noundef %0, i64 noundef %1) #0 {
  %3 = alloca ptr, align 8
  %4 = alloca i64, align 8
  store ptr %0, ptr %3, align 8, !tbaa !4
  store i64 %1, ptr %4, align 8, !tbaa !8
  ret void
}

; Function Attrs: mustprogress nounwind uwtable
define dso_local void @_ZN4absl17LeakCheckDisablerC2Ev(ptr noundef nonnull align 1 dereferenceable(1) %0) unnamed_addr #0 align 2 {
  %2 = alloca ptr, align 8
  store ptr %0, ptr %2, align 8, !tbaa !10
  ret void
}

; Function Attrs: mustprogress nounwind uwtable
define dso_local void @_ZN4absl17LeakCheckDisablerD2Ev(ptr noundef nonnull align 1 dereferenceable(1) %0) unnamed_addr #0 align 2 {
  %2 = alloca ptr, align 8
  store ptr %0, ptr %2, align 8, !tbaa !10
  ret void
}


!llvm.module.flags = !{!0, !1, !2, !3}

!0 = !{i32 1, !"wchar_size", i32 4}
!1 = !{i32 8, !"PIC Level", i32 2}
!2 = !{i32 7, !"PIE Level", i32 2}
!3 = !{i32 7, !"uwtable", i32 2}
!4 = !{!5, !5, i64 0}
!5 = !{!"any pointer", !6, i64 0}
!6 = !{!"omnipotent char", !7, i64 0}
!7 = !{!"Simple C++ TBAA"}
!8 = !{!9, !9, i64 0}
!9 = !{!"long", !6, i64 0}
!10 = !{!11, !11, i64 0}
!11 = !{!"p1 _ZTSN4absl17LeakCheckDisablerE", !5, i64 0}
