; ModuleID = 'bench/abseil-cpp/original/leak_check.ll'
source_filename = "bench/abseil-cpp/original/leak_check.ll"
target datalayout = "e-m:e-p270:32:32-p271:32:32-p272:64:64-i64:64-i128:128-f80:128-n8:16:32:64-S128"
target triple = "x86_64-pc-linux-gnu"

@_ZN4absl17LeakCheckDisablerC1Ev = dso_local unnamed_addr alias void (ptr), ptr @_ZN4absl17LeakCheckDisablerC2Ev
@_ZN4absl17LeakCheckDisablerD1Ev = dso_local unnamed_addr alias void (ptr), ptr @_ZN4absl17LeakCheckDisablerD2Ev

; Function Attrs: mustprogress nofree norecurse nosync nounwind willreturn memory(none) uwtable
define dso_local noundef zeroext i1 @_ZN4absl17HaveLeakSanitizerEv() local_unnamed_addr #0 {
  ret i1 false
}

; Function Attrs: mustprogress nofree norecurse nosync nounwind willreturn memory(none) uwtable
define dso_local noundef zeroext i1 @_ZN4absl19LeakCheckerIsActiveEv() local_unnamed_addr #0 {
  ret i1 false
}

; Function Attrs: mustprogress nofree norecurse nosync nounwind willreturn memory(none) uwtable
define dso_local void @_ZN4absl12DoIgnoreLeakEPKv(ptr noundef readnone captures(none) %0) local_unnamed_addr #0 {
  ret void
}

; Function Attrs: mustprogress nofree norecurse nosync nounwind willreturn memory(none) uwtable
define dso_local void @_ZN4absl20RegisterLivePointersEPKvm(ptr noundef readnone captures(none) %0, i64 noundef %1) local_unnamed_addr #0 {
  ret void
}

; Function Attrs: mustprogress nofree norecurse nosync nounwind willreturn memory(none) uwtable
define dso_local void @_ZN4absl22UnRegisterLivePointersEPKvm(ptr noundef readnone captures(none) %0, i64 noundef %1) local_unnamed_addr #0 {
  ret void
}

; Function Attrs: mustprogress nofree norecurse nosync nounwind willreturn memory(none) uwtable
define dso_local void @_ZN4absl17LeakCheckDisablerC2Ev(ptr nonnull readnone align 1 captures(none) %0) unnamed_addr #0 align 2 {
  ret void
}

; Function Attrs: mustprogress nofree norecurse nosync nounwind willreturn memory(none) uwtable
define dso_local void @_ZN4absl17LeakCheckDisablerD2Ev(ptr nonnull readnone align 1 captures(none) %0) unnamed_addr #0 align 2 {
  ret void
}


!llvm.module.flags = !{!0, !1, !2, !3}

!0 = !{i32 1, !"wchar_size", i32 4}
!1 = !{i32 8, !"PIC Level", i32 2}
!2 = !{i32 7, !"PIE Level", i32 2}
!3 = !{i32 7, !"uwtable", i32 2}
